target datalayout = "e-m:e-p270:32:32-p271:32:32-p272:64:64-i64:64-i128:128-f80:128-n8:16:32:64-S128"
target triple = "x86_64-pc-linux-gnu"

; Function Attrs: nounwind uwtable
define internal void @HU4_C(ptr noundef %0) #0 {
  %2 = alloca ptr, align 8
  %3 = alloca i32, align 4
  %4 = alloca i32, align 4
  %5 = alloca i32, align 4
  %6 = alloca i32, align 4
  store ptr %0, ptr %2, align 8, !tbaa !16
  call void @llvm.lifetime.start.p0(i64 4, ptr %3) #7
  %7 = load ptr, ptr %2, align 8, !tbaa !16
  %8 = getelementptr inbounds i8, ptr %7, i64 -1
  %9 = load i8, ptr %8, align 1, !tbaa !18
  %10 = zext i8 %9 to i32
  store i32 %10, ptr %3, align 4, !tbaa !9
  call void @llvm.lifetime.start.p0(i64 4, ptr %4) #7
  %11 = load ptr, ptr %2, align 8, !tbaa !16
  %12 = getelementptr inbounds i8, ptr %11, i64 31
  %13 = load i8, ptr %12, align 1, !tbaa !18
  %14 = zext i8 %13 to i32
  store i32 %14, ptr %4, align 4, !tbaa !9
  call void @llvm.lifetime.start.p0(i64 4, ptr %5) #7
  %15 = load ptr, ptr %2, align 8, !tbaa !16
  %16 = getelementptr inbounds i8, ptr %15, i64 63
  %17 = load i8, ptr %16, align 1, !tbaa !18
  %18 = zext i8 %17 to i32
  store i32 %18, ptr %5, align 4, !tbaa !9
  call void @llvm.lifetime.start.p0(i64 4, ptr %6) #7
  %19 = load ptr, ptr %2, align 8, !tbaa !16
  %20 = getelementptr inbounds i8, ptr %19, i64 95
  %21 = load i8, ptr %20, align 1, !tbaa !18
  %22 = zext i8 %21 to i32
  store i32 %22, ptr %6, align 4, !tbaa !9
  %23 = load i32, ptr %3, align 4, !tbaa !9
  %24 = load i32, ptr %4, align 4, !tbaa !9
  %25 = add nsw i32 %23, %24
  %26 = add nsw i32 %25, 1
  %27 = ashr i32 %26, 1
  %28 = trunc i32 %27 to i8
  %29 = load ptr, ptr %2, align 8, !tbaa !16
  %30 = getelementptr inbounds i8, ptr %29, i64 0
  store i8 %28, ptr %30, align 1, !tbaa !18
  %31 = load i32, ptr %4, align 4, !tbaa !9
  %32 = load i32, ptr %5, align 4, !tbaa !9
  %33 = add nsw i32 %31, %32
  %34 = add nsw i32 %33, 1
  %35 = ashr i32 %34, 1
  %36 = trunc i32 %35 to i8
  %37 = load ptr, ptr %2, align 8, !tbaa !16
  %38 = getelementptr inbounds i8, ptr %37, i64 32
  store i8 %36, ptr %38, align 1, !tbaa !18
  %39 = load ptr, ptr %2, align 8, !tbaa !16
  %40 = getelementptr inbounds i8, ptr %39, i64 2
  store i8 %36, ptr %40, align 1, !tbaa !18
  %41 = load i32, ptr %5, align 4, !tbaa !9
  %42 = load i32, ptr %6, align 4, !tbaa !9
  %43 = add nsw i32 %41, %42
  %44 = add nsw i32 %43, 1
  %45 = ashr i32 %44, 1
  %46 = trunc i32 %45 to i8
  %47 = load ptr, ptr %2, align 8, !tbaa !16
  %48 = getelementptr inbounds i8, ptr %47, i64 64
  store i8 %46, ptr %48, align 1, !tbaa !18
  %49 = load ptr, ptr %2, align 8, !tbaa !16
  %50 = getelementptr inbounds i8, ptr %49, i64 34
  store i8 %46, ptr %50, align 1, !tbaa !18
  %51 = load i32, ptr %3, align 4, !tbaa !9
  %52 = load i32, ptr %4, align 4, !tbaa !9
  %53 = mul nsw i32 2, %52
  %54 = add nsw i32 %51, %53
  %55 = load i32, ptr %5, align 4, !tbaa !9
  %56 = add nsw i32 %54, %55
  %57 = add nsw i32 %56, 2
  %58 = ashr i32 %57, 2
  %59 = trunc i32 %58 to i8
  %60 = load ptr, ptr %2, align 8, !tbaa !16
  %61 = getelementptr inbounds i8, ptr %60, i64 1
  store i8 %59, ptr %61, align 1, !tbaa !18
  %62 = load i32, ptr %4, align 4, !tbaa !9
  %63 = load i32, ptr %5, align 4, !tbaa !9
  %64 = mul nsw i32 2, %63
  %65 = add nsw i32 %62, %64
  %66 = load i32, ptr %6, align 4, !tbaa !9
  %67 = add nsw i32 %65, %66
  %68 = add nsw i32 %67, 2
  %69 = ashr i32 %68, 2
  %70 = trunc i32 %69 to i8
  %71 = load ptr, ptr %2, align 8, !tbaa !16
  %72 = getelementptr inbounds i8, ptr %71, i64 33
  store i8 %70, ptr %72, align 1, !tbaa !18
  %73 = load ptr, ptr %2, align 8, !tbaa !16
  %74 = getelementptr inbounds i8, ptr %73, i64 3
  store i8 %70, ptr %74, align 1, !tbaa !18
  %75 = load i32, ptr %5, align 4, !tbaa !9
  %76 = load i32, ptr %6, align 4, !tbaa !9
  %77 = mul nsw i32 2, %76
  %78 = add nsw i32 %75, %77
  %79 = load i32, ptr %6, align 4, !tbaa !9
  %80 = add nsw i32 %78, %79
  %81 = add nsw i32 %80, 2
  %82 = ashr i32 %81, 2
  %83 = trunc i32 %82 to i8
  %84 = load ptr, ptr %2, align 8, !tbaa !16
  %85 = getelementptr inbounds i8, ptr %84, i64 65
  store i8 %83, ptr %85, align 1, !tbaa !18
  %86 = load ptr, ptr %2, align 8, !tbaa !16
  %87 = getelementptr inbounds i8, ptr %86, i64 35
  store i8 %83, ptr %87, align 1, !tbaa !18
  %88 = load i32, ptr %6, align 4, !tbaa !9
  %89 = trunc i32 %88 to i8
  %90 = load ptr, ptr %2, align 8, !tbaa !16
  %91 = getelementptr inbounds i8, ptr %90, i64 99
  store i8 %89, ptr %91, align 1, !tbaa !18
  %92 = load ptr, ptr %2, align 8, !tbaa !16
  %93 = getelementptr inbounds i8, ptr %92, i64 98
  store i8 %89, ptr %93, align 1, !tbaa !18
  %94 = load ptr, ptr %2, align 8, !tbaa !16
  %95 = getelementptr inbounds i8, ptr %94, i64 97
  store i8 %89, ptr %95, align 1, !tbaa !18
  %96 = load ptr, ptr %2, align 8, !tbaa !16
  %97 = getelementptr inbounds i8, ptr %96, i64 96
  store i8 %89, ptr %97, align 1, !tbaa !18
  %98 = load ptr, ptr %2, align 8, !tbaa !16
  %99 = getelementptr inbounds i8, ptr %98, i64 66
  store i8 %89, ptr %99, align 1, !tbaa !18
  %100 = load ptr, ptr %2, align 8, !tbaa !16
  %101 = getelementptr inbounds i8, ptr %100, i64 67
  store i8 %89, ptr %101, align 1, !tbaa !18
  call void @llvm.lifetime.end.p0(i64 4, ptr %6) #7
  call void @llvm.lifetime.end.p0(i64 4, ptr %5) #7
  call void @llvm.lifetime.end.p0(i64 4, ptr %4) #7
  call void @llvm.lifetime.end.p0(i64 4, ptr %3) #7
  ret void
}