; Function Attrs: mustprogress nofree norecurse nosync nounwind willreturn memory(argmem: readwrite) uwtable
define internal void @HU4_C(ptr noundef captures(none) initializes((0, 4), (32, 36), (64, 68), (96, 100)) %0) #4 {
  %2 = getelementptr inbounds i8, ptr %0, i64 -1
  %3 = load i8, ptr %2, align 1, !tbaa !14
  %4 = zext i8 %3 to i32
  %5 = getelementptr inbounds nuw i8, ptr %0, i64 31
  %6 = load i8, ptr %5, align 1, !tbaa !14
  %7 = zext i8 %6 to i32
  %8 = getelementptr inbounds nuw i8, ptr %0, i64 63
  %9 = load i8, ptr %8, align 1, !tbaa !14
  %10 = zext i8 %9 to i32
  %11 = getelementptr inbounds nuw i8, ptr %0, i64 95
  %12 = load i8, ptr %11, align 1, !tbaa !14
  %13 = zext i8 %12 to i32
  %14 = add nuw nsw i32 %7, 1
  %15 = add nuw nsw i32 %14, %4
  %16 = lshr i32 %15, 1
  %17 = trunc nuw i32 %16 to i8
  store i8 %17, ptr %0, align 1, !tbaa !14
  %18 = add nuw nsw i32 %14, %10
  %19 = lshr i32 %18, 1
  %20 = trunc nuw i32 %19 to i8
  %21 = getelementptr inbounds nuw i8, ptr %0, i64 32
  store i8 %20, ptr %21, align 1, !tbaa !14
  %22 = getelementptr inbounds nuw i8, ptr %0, i64 2
  store i8 %20, ptr %22, align 1, !tbaa !14
  %23 = add nuw nsw i32 %10, 1
  %24 = add nuw nsw i32 %23, %13
  %25 = lshr i32 %24, 1
  %26 = trunc nuw i32 %25 to i8
  %27 = getelementptr inbounds nuw i8, ptr %0, i64 64
  store i8 %26, ptr %27, align 1, !tbaa !14
  %28 = getelementptr inbounds nuw i8, ptr %0, i64 34
  store i8 %26, ptr %28, align 1, !tbaa !14
  %29 = shl nuw nsw i32 %7, 1
  %30 = add nuw nsw i32 %10, 2
  %31 = add nuw nsw i32 %30, %4
  %32 = add nuw nsw i32 %31, %29
  %33 = lshr i32 %32, 2
  %34 = trunc nuw i32 %33 to i8
  %35 = getelementptr inbounds nuw i8, ptr %0, i64 1
  store i8 %34, ptr %35, align 1, !tbaa !14
  %36 = shl nuw nsw i32 %10, 1
  %37 = add nuw nsw i32 %13, 2
  %38 = add nuw nsw i32 %37, %7
  %39 = add nuw nsw i32 %38, %36
  %40 = lshr i32 %39, 2
  %41 = trunc nuw i32 %40 to i8
  %42 = getelementptr inbounds nuw i8, ptr %0, i64 33
  store i8 %41, ptr %42, align 1, !tbaa !14
  %43 = getelementptr inbounds nuw i8, ptr %0, i64 3
  store i8 %41, ptr %43, align 1, !tbaa !14
  %44 = shl nuw nsw i32 %13, 1
  %45 = add nuw nsw i32 %30, %13
  %46 = add nuw nsw i32 %45, %44
  %47 = lshr i32 %46, 2
  %48 = trunc nuw i32 %47 to i8
  %49 = getelementptr inbounds nuw i8, ptr %0, i64 65
  store i8 %48, ptr %49, align 1, !tbaa !14
  %50 = getelementptr inbounds nuw i8, ptr %0, i64 35
  store i8 %48, ptr %50, align 1, !tbaa !14
  %51 = getelementptr inbounds nuw i8, ptr %0, i64 99
  store i8 %12, ptr %51, align 1, !tbaa !14
  %52 = getelementptr inbounds nuw i8, ptr %0, i64 98
  store i8 %12, ptr %52, align 1, !tbaa !14
  %53 = getelementptr inbounds nuw i8, ptr %0, i64 97
  store i8 %12, ptr %53, align 1, !tbaa !14
  %54 = getelementptr inbounds nuw i8, ptr %0, i64 96
  store i8 %12, ptr %54, align 1, !tbaa !14
  %55 = getelementptr inbounds nuw i8, ptr %0, i64 66
  store i8 %12, ptr %55, align 1, !tbaa !14
  %56 = getelementptr inbounds nuw i8, ptr %0, i64 67
  store i8 %12, ptr %56, align 1, !tbaa !14
  ret void
}